; Function Attrs: mustprogress uwtable
define internal void @_ZNK12_GLOBAL__N_114CosStorageTool4statEN5vcpkg10StringViewE(ptr dead_on_unwind noalias writable sret(%"struct.vcpkg::ExpectedT.154") align 8 %0, ptr noundef nonnull align 8 dereferenceable(40) %1, ptr %2, i64 %3) unnamed_addr #0 align 2 personality ptr @__gxx_personality_v0 {
  %5 = alloca %"struct.vcpkg::ExpectedT.450", align 8
  %6 = alloca %"struct.vcpkg::Command", align 8
  %7 = getelementptr inbounds i8, ptr %1, i64 8
  %8 = tail call { ptr, i64 } @_ZNK5vcpkg4PathcvNS_10StringViewEEv(ptr noundef nonnull align 8 dereferenceable(32) %7) #24
  %9 = extractvalue { ptr, i64 } %8, 0
  %10 = extractvalue { ptr, i64 } %8, 1
  call void @_ZNSt7__cxx1112basic_stringIcSt11char_traitsIcESaIcEEC1Ev(ptr noundef nonnull align 8 dereferenceable(32) %6) #24
  %11 = invoke noundef nonnull align 8 dereferenceable(32) ptr @_ZNR5vcpkg7Command10string_argENS_10StringViewE(ptr noundef nonnull align 8 dereferenceable(32) %6, ptr %9, i64 %10)
          to label %_ZN5vcpkg7CommandC2ENS_10StringViewE.exit unwind label %12

common.resume:                                    ; preds = %23, %25, %12
  %common.resume.op = phi { ptr, i32 } [ %13, %12 ], [ %26, %25 ], [ %24, %23 ]
  call void @_ZNSt7__cxx1112basic_stringIcSt11char_traitsIcESaIcEED1Ev(ptr noundef nonnull align 8 dereferenceable(32) %6) #24
  resume { ptr, i32 } %common.resume.op

12:                                               ; preds = %4
  %13 = landingpad { ptr, i32 }
          cleanup
  br label %common.resume

_ZN5vcpkg7CommandC2ENS_10StringViewE.exit:        ; preds = %4
  %14 = invoke noundef nonnull align 8 dereferenceable(32) ptr @_ZNR5vcpkg7Command10string_argENS_10StringViewE(ptr noundef nonnull align 8 dereferenceable(32) %6, ptr nonnull @.str.108, i64 2)
          to label %_ZNO5vcpkg7Command10string_argENS_10StringViewE.exit unwind label %23

_ZNO5vcpkg7Command10string_argENS_10StringViewE.exit: ; preds = %_ZN5vcpkg7CommandC2ENS_10StringViewE.exit
  %15 = invoke noundef nonnull align 8 dereferenceable(32) ptr @_ZNR5vcpkg7Command10string_argENS_10StringViewE(ptr noundef nonnull align 8 dereferenceable(32) %14, ptr %2, i64 %3)
          to label %_ZNO5vcpkg7Command10string_argENS_10StringViewE.exit10 unwind label %23

_ZNO5vcpkg7Command10string_argENS_10StringViewE.exit10: ; preds = %_ZNO5vcpkg7Command10string_argENS_10StringViewE.exit
  invoke void @_ZN5vcpkg30cmd_execute_and_capture_outputERKNS_7CommandE(ptr dead_on_unwind nonnull writable sret(%"struct.vcpkg::ExpectedT.450") align 8 %5, ptr noundef nonnull align 8 dereferenceable(32) %15)
          to label %16 unwind label %23

16:                                               ; preds = %_ZNO5vcpkg7Command10string_argENS_10StringViewE.exit10
  invoke void @_ZN5vcpkg7flattenERKNS_9ExpectedTINS_17ExitCodeAndOutputENS_15LocalizedStringEEENS_10StringViewE(ptr dead_on_unwind writable sret(%"struct.vcpkg::ExpectedT.154") align 8 %0, ptr noundef nonnull align 8 dereferenceable(41) %5, ptr nonnull @.str.110, i64 6)
          to label %17 unwind label %25

17:                                               ; preds = %16
  %18 = getelementptr inbounds i8, ptr %5, i64 40
  %19 = load i8, ptr %18, align 8
  %20 = shl i8 %19, 3
  %21 = and i8 %20, 8
  %22 = xor i8 %21, 8
  %.sink.idx.i = zext nneg i8 %22 to i64
  %.sink.i = getelementptr inbounds i8, ptr %5, i64 %.sink.idx.i
  call void @_ZNSt7__cxx1112basic_stringIcSt11char_traitsIcESaIcEED1Ev(ptr noundef nonnull align 8 dereferenceable(32) %.sink.i) #24
  call void @_ZNSt7__cxx1112basic_stringIcSt11char_traitsIcESaIcEED1Ev(ptr noundef nonnull align 8 dereferenceable(32) %6) #24
  ret void

23:                                               ; preds = %_ZNO5vcpkg7Command10string_argENS_10StringViewE.exit, %_ZN5vcpkg7CommandC2ENS_10StringViewE.exit, %_ZNO5vcpkg7Command10string_argENS_10StringViewE.exit10
  %24 = landingpad { ptr, i32 }
          cleanup
  br label %common.resume

25:                                               ; preds = %16
  %26 = landingpad { ptr, i32 }
          cleanup
  %27 = getelementptr inbounds i8, ptr %5, i64 40
  %28 = load i8, ptr %27, align 8
  %29 = shl i8 %28, 3
  %30 = and i8 %29, 8
  %31 = xor i8 %30, 8
  %.sink.idx.i11 = zext nneg i8 %31 to i64
  %.sink.i12 = getelementptr inbounds i8, ptr %5, i64 %.sink.idx.i11
  call void @_ZNSt7__cxx1112basic_stringIcSt11char_traitsIcESaIcEED1Ev(ptr noundef nonnull align 8 dereferenceable(32) %.sink.i12) #24
  br label %common.resume
}